#include <math.h>
#include <stdio.h>
#include <stdlib.h>
#include <string.h>

void main()
{
	int n,k;
	int a[1000];
	scanf("%d%d",&n,&k);
	int i,j,l=0;
	for(i=0;i<n;i++)
	{
		scanf("%d",&a[i]);
	}
	for(i=0;i<n;i++)
	{for(j=i+1;j<n;j++)
	{if(a[i]+a[j]==k)
	   {printf("yes");
	goto ab;}
	   
	else
		l++;}
	}
ab:
	if(l==n*(n-1)/2)
		printf("no");
}
